target datalayout = "e-m:e-p270:32:32-p271:32:32-p272:64:64-i64:64-i128:128-f80:128-n8:16:32:64-S128"
target triple = "x86_64-pc-linux-gnu"

%struct.ItemPointerData = type { %struct.BlockIdData, i16 }
%struct.BlockIdData = type { i16, i16 }
%struct.TupleDescData = type { i32, i32, i32, i32, ptr, [0 x %struct.CompactAttribute] }
%struct.CompactAttribute = type { i32, i16, i8, i8, i8, i8, i8, i8, i8 }
%struct.FormData_pg_attribute = type { i32, %struct.nameData, i32, i16, i16, i32, i16, i8, i8, i8, i8, i8, i8, i8, i8, i8, i8, i8, i16, i32 }
%struct.nameData = type { [64 x i8] }
%struct.HeapTupleData = type { i32, %struct.ItemPointerData, i32, ptr }
%struct.HeapTupleHeaderData = type { %union.anon, %struct.ItemPointerData, i16, i16, i8, [0 x i8] }
%union.anon = type { %struct.HeapTupleFields }
%struct.HeapTupleFields = type { i32, i32, %union.anon.0 }
%union.anon.0 = type { i32 }
%struct.DatumTupleFields = type { i32, i32, i32 }
%struct.anon = type { i32, [0 x i8] }

@.str.4 = private unnamed_addr constant [12 x i8] c"execUtils.c\00", align 1
@.str.5 = private unnamed_addr constant [23 x i8] c"invalid attribute name\00", align 1
@__func__.GetAttributeByName = private unnamed_addr constant [19 x i8] c"GetAttributeByName\00", align 1
@.str.6 = private unnamed_addr constant [33 x i8] c"a NULL isNull pointer was passed\00", align 1
@.str.7 = private unnamed_addr constant [30 x i8] c"attribute \22%s\22 does not exist\00", align 1

; Function Attrs: inlinehint nounwind uwtable
define internal void @BlockIdSet(ptr noundef %0, i32 noundef %1) #3 {
  %3 = alloca ptr, align 8
  %4 = alloca i32, align 4
  store ptr %0, ptr %3, align 8
  store i32 %1, ptr %4, align 4
  %5 = load i32, ptr %4, align 4
  %6 = lshr i32 %5, 16
  %7 = trunc i32 %6 to i16
  %8 = load ptr, ptr %3, align 8
  %9 = getelementptr inbounds nuw %struct.BlockIdData, ptr %8, i32 0, i32 0
  store i16 %7, ptr %9, align 2
  %10 = load i32, ptr %4, align 4
  %11 = and i32 %10, 65535
  %12 = trunc i32 %11 to i16
  %13 = load ptr, ptr %3, align 8
  %14 = getelementptr inbounds nuw %struct.BlockIdData, ptr %13, i32 0, i32 1
  store i16 %12, ptr %14, align 2
  ret void
}

; Function Attrs: inlinehint nounwind uwtable
define internal void @ItemPointerSetInvalid(ptr noundef %0) #3 {
  %2 = alloca ptr, align 8
  store ptr %0, ptr %2, align 8
  %3 = load ptr, ptr %2, align 8
  %4 = getelementptr inbounds nuw %struct.ItemPointerData, ptr %3, i32 0, i32 0
  call void @BlockIdSet(ptr noundef %4, i32 noundef -1)
  %5 = load ptr, ptr %2, align 8
  %6 = getelementptr inbounds nuw %struct.ItemPointerData, ptr %5, i32 0, i32 1
  store i16 0, ptr %6, align 2
  ret void
}

; Function Attrs: inlinehint nounwind uwtable
define internal i32 @HeapTupleHeaderGetDatumLength(ptr noundef %0) #3 {
  %2 = alloca ptr, align 8
  store ptr %0, ptr %2, align 8
  %3 = load ptr, ptr %2, align 8
  %4 = getelementptr inbounds nuw %struct.anon, ptr %3, i32 0, i32 0
  %5 = load i32, ptr %4, align 4
  %6 = lshr i32 %5, 2
  %7 = and i32 %6, 1073741823
  ret i32 %7
}

; Function Attrs: inlinehint nounwind uwtable
define internal ptr @TupleDescAttr(ptr noundef %0, i32 noundef %1) #3 {
  %3 = alloca ptr, align 8
  %4 = alloca i32, align 4
  %5 = alloca ptr, align 8
  store ptr %0, ptr %3, align 8
  store i32 %1, ptr %4, align 4
  call void @llvm.lifetime.start.p0(i64 8, ptr %5) #6
  %6 = load ptr, ptr %3, align 8
  %7 = load ptr, ptr %3, align 8
  %8 = getelementptr inbounds nuw %struct.TupleDescData, ptr %7, i32 0, i32 0
  %9 = load i32, ptr %8, align 8
  %10 = sext i32 %9 to i64
  %11 = mul i64 %10, 16
  %12 = add i64 24, %11
  %13 = getelementptr inbounds nuw i8, ptr %6, i64 %12
  store ptr %13, ptr %5, align 8
  %14 = load ptr, ptr %5, align 8
  %15 = load i32, ptr %4, align 4
  %16 = sext i32 %15 to i64
  %17 = getelementptr inbounds %struct.FormData_pg_attribute, ptr %14, i64 %16
  call void @llvm.lifetime.end.p0(i64 8, ptr %5) #6
  ret ptr %17
}

; Function Attrs: inlinehint nounwind uwtable
define internal i32 @HeapTupleHeaderGetTypMod(ptr noundef %0) #3 {
  %2 = alloca ptr, align 8
  store ptr %0, ptr %2, align 8
  %3 = load ptr, ptr %2, align 8
  %4 = getelementptr inbounds nuw %struct.HeapTupleHeaderData, ptr %3, i32 0, i32 0
  %5 = getelementptr inbounds nuw %struct.DatumTupleFields, ptr %4, i32 0, i32 1
  %6 = load i32, ptr %5, align 4
  ret i32 %6
}

; Function Attrs: inlinehint nounwind uwtable
define internal i32 @HeapTupleHeaderGetTypeId(ptr noundef %0) #3 {
  %2 = alloca ptr, align 8
  store ptr %0, ptr %2, align 8
  %3 = load ptr, ptr %2, align 8
  %4 = getelementptr inbounds nuw %struct.HeapTupleHeaderData, ptr %3, i32 0, i32 0
  %5 = getelementptr inbounds nuw %struct.DatumTupleFields, ptr %4, i32 0, i32 2
  %6 = load i32, ptr %5, align 4
  ret i32 %6
}

; Function Attrs: nounwind uwtable
define dso_local i64 @GetAttributeByName(ptr noundef %0, ptr noundef %1, ptr noundef %2) #0 {
  %4 = alloca i64, align 8
  %5 = alloca ptr, align 8
  %6 = alloca ptr, align 8
  %7 = alloca ptr, align 8
  %8 = alloca i16, align 2
  %9 = alloca i64, align 8
  %10 = alloca i32, align 4
  %11 = alloca i32, align 4
  %12 = alloca ptr, align 8
  %13 = alloca %struct.HeapTupleData, align 8
  %14 = alloca i32, align 4
  %15 = alloca i32, align 4
  %16 = alloca ptr, align 8
  store ptr %0, ptr %5, align 8
  store ptr %1, ptr %6, align 8
  store ptr %2, ptr %7, align 8
  call void @llvm.lifetime.start.p0(i64 2, ptr %8) #6
  call void @llvm.lifetime.start.p0(i64 8, ptr %9) #6
  call void @llvm.lifetime.start.p0(i64 4, ptr %10) #6
  call void @llvm.lifetime.start.p0(i64 4, ptr %11) #6
  call void @llvm.lifetime.start.p0(i64 8, ptr %12) #6
  call void @llvm.lifetime.start.p0(i64 24, ptr %13) #6
  call void @llvm.lifetime.start.p0(i64 4, ptr %14) #6
  %17 = load ptr, ptr %6, align 8
  %18 = icmp eq ptr %17, null
  br i1 %18, label %19, label %30

19:                                               ; preds = %3
  br label %20

20:                                               ; preds = %19
  br i1 true, label %21, label %23

21:                                               ; preds = %20
  %22 = call zeroext i1 @errstart_cold(i32 noundef 21, ptr noundef null) #7
  br i1 %22, label %25, label %27

23:                                               ; preds = %20
  %24 = call zeroext i1 @errstart(i32 noundef 21, ptr noundef null)
  br i1 %24, label %25, label %27

25:                                               ; preds = %23, %21
  %26 = call i32 (ptr, ...) @errmsg_internal(ptr noundef @.str.5)
  call void @errfinish(ptr noundef @.str.4, i32 noundef 1062, ptr noundef @__func__.GetAttributeByName)
  br label %27

27:                                               ; preds = %25, %23, %21
  unreachable

28:                                               ; No predecessors!
  br label %29

29:                                               ; preds = %28
  br label %30

30:                                               ; preds = %29, %3
  %31 = load ptr, ptr %7, align 8
  %32 = icmp eq ptr %31, null
  br i1 %32, label %33, label %44

33:                                               ; preds = %30
  br label %34

34:                                               ; preds = %33
  br i1 true, label %35, label %37

35:                                               ; preds = %34
  %36 = call zeroext i1 @errstart_cold(i32 noundef 21, ptr noundef null) #7
  br i1 %36, label %39, label %41

37:                                               ; preds = %34
  %38 = call zeroext i1 @errstart(i32 noundef 21, ptr noundef null)
  br i1 %38, label %39, label %41

39:                                               ; preds = %37, %35
  %40 = call i32 (ptr, ...) @errmsg_internal(ptr noundef @.str.6)
  call void @errfinish(ptr noundef @.str.4, i32 noundef 1065, ptr noundef @__func__.GetAttributeByName)
  br label %41

41:                                               ; preds = %39, %37, %35
  unreachable

42:                                               ; No predecessors!
  br label %43

43:                                               ; preds = %42
  br label %44

44:                                               ; preds = %43, %30
  %45 = load ptr, ptr %5, align 8
  %46 = icmp eq ptr %45, null
  br i1 %46, label %47, label %49

47:                                               ; preds = %44
  %48 = load ptr, ptr %7, align 8
  store i8 1, ptr %48, align 1
  store i64 0, ptr %4, align 8
  store i32 1, ptr %15, align 4
  br label %123

49:                                               ; preds = %44
  %50 = load ptr, ptr %5, align 8
  %51 = call i32 @HeapTupleHeaderGetTypeId(ptr noundef %50)
  store i32 %51, ptr %10, align 4
  %52 = load ptr, ptr %5, align 8
  %53 = call i32 @HeapTupleHeaderGetTypMod(ptr noundef %52)
  store i32 %53, ptr %11, align 4
  %54 = load i32, ptr %10, align 4
  %55 = load i32, ptr %11, align 4
  %56 = call ptr @lookup_rowtype_tupdesc(i32 noundef %54, i32 noundef %55)
  store ptr %56, ptr %12, align 8
  store i16 0, ptr %8, align 2
  store i32 0, ptr %14, align 4
  br label %57

57:                                               ; preds = %80, %49
  %58 = load i32, ptr %14, align 4
  %59 = load ptr, ptr %12, align 8
  %60 = getelementptr inbounds nuw %struct.TupleDescData, ptr %59, i32 0, i32 0
  %61 = load i32, ptr %60, align 8
  %62 = icmp slt i32 %58, %61
  br i1 %62, label %63, label %83

63:                                               ; preds = %57
  call void @llvm.lifetime.start.p0(i64 8, ptr %16) #6
  %64 = load ptr, ptr %12, align 8
  %65 = load i32, ptr %14, align 4
  %66 = call ptr @TupleDescAttr(ptr noundef %64, i32 noundef %65)
  store ptr %66, ptr %16, align 8
  %67 = load ptr, ptr %16, align 8
  %68 = getelementptr inbounds nuw %struct.FormData_pg_attribute, ptr %67, i32 0, i32 1
  %69 = load ptr, ptr %6, align 8
  %70 = call i32 @namestrcmp(ptr noundef %68, ptr noundef %69)
  %71 = icmp eq i32 %70, 0
  br i1 %71, label %72, label %76

72:                                               ; preds = %63
  %73 = load ptr, ptr %16, align 8
  %74 = getelementptr inbounds nuw %struct.FormData_pg_attribute, ptr %73, i32 0, i32 4
  %75 = load i16, ptr %74, align 2
  store i16 %75, ptr %8, align 2
  store i32 6, ptr %15, align 4
  br label %77

76:                                               ; preds = %63
  store i32 0, ptr %15, align 4
  br label %77

77:                                               ; preds = %76, %72
  call void @llvm.lifetime.end.p0(i64 8, ptr %16) #6
  %78 = load i32, ptr %15, align 4
  switch i32 %78, label %125 [
    i32 0, label %79
    i32 6, label %83
  ]

79:                                               ; preds = %77
  br label %80

80:                                               ; preds = %79
  %81 = load i32, ptr %14, align 4
  %82 = add i32 %81, 1
  store i32 %82, ptr %14, align 4
  br label %57, !llvm.loop !13

83:                                               ; preds = %77, %57
  %84 = load i16, ptr %8, align 2
  %85 = sext i16 %84 to i32
  %86 = icmp eq i32 %85, 0
  br i1 %86, label %87, label %99

87:                                               ; preds = %83
  br label %88

88:                                               ; preds = %87
  br i1 true, label %89, label %91

89:                                               ; preds = %88
  %90 = call zeroext i1 @errstart_cold(i32 noundef 21, ptr noundef null) #7
  br i1 %90, label %93, label %96

91:                                               ; preds = %88
  %92 = call zeroext i1 @errstart(i32 noundef 21, ptr noundef null)
  br i1 %92, label %93, label %96

93:                                               ; preds = %91, %89
  %94 = load ptr, ptr %6, align 8
  %95 = call i32 (ptr, ...) @errmsg_internal(ptr noundef @.str.7, ptr noundef %94)
  call void @errfinish(ptr noundef @.str.4, i32 noundef 1091, ptr noundef @__func__.GetAttributeByName)
  br label %96

96:                                               ; preds = %93, %91, %89
  unreachable

97:                                               ; No predecessors!
  br label %98

98:                                               ; preds = %97
  br label %99

99:                                               ; preds = %98, %83
  %100 = load ptr, ptr %5, align 8
  %101 = call i32 @HeapTupleHeaderGetDatumLength(ptr noundef %100)
  %102 = getelementptr inbounds nuw %struct.HeapTupleData, ptr %13, i32 0, i32 0
  store i32 %101, ptr %102, align 8
  %103 = getelementptr inbounds nuw %struct.HeapTupleData, ptr %13, i32 0, i32 1
  call void @ItemPointerSetInvalid(ptr noundef %103)
  %104 = getelementptr inbounds nuw %struct.HeapTupleData, ptr %13, i32 0, i32 2
  store i32 0, ptr %104, align 4
  %105 = load ptr, ptr %5, align 8
  %106 = getelementptr inbounds nuw %struct.HeapTupleData, ptr %13, i32 0, i32 3
  store ptr %105, ptr %106, align 8
  %107 = load i16, ptr %8, align 2
  %108 = sext i16 %107 to i32
  %109 = load ptr, ptr %12, align 8
  %110 = load ptr, ptr %7, align 8
  %111 = call i64 @heap_getattr(ptr noundef %13, i32 noundef %108, ptr noundef %109, ptr noundef %110)
  store i64 %111, ptr %9, align 8
  br label %112

112:                                              ; preds = %99
  %113 = load ptr, ptr %12, align 8
  %114 = getelementptr inbounds nuw %struct.TupleDescData, ptr %113, i32 0, i32 3
  %115 = load i32, ptr %114, align 4
  %116 = icmp sge i32 %115, 0
  br i1 %116, label %117, label %119

117:                                              ; preds = %112
  %118 = load ptr, ptr %12, align 8
  call void @DecrTupleDescRefCount(ptr noundef %118)
  br label %119

119:                                              ; preds = %117, %112
  br label %120

120:                                              ; preds = %119
  br label %121

121:                                              ; preds = %120
  %122 = load i64, ptr %9, align 8
  store i64 %122, ptr %4, align 8
  store i32 1, ptr %15, align 4
  br label %123

123:                                              ; preds = %121, %47
  call void @llvm.lifetime.end.p0(i64 4, ptr %14) #6
  call void @llvm.lifetime.end.p0(i64 24, ptr %13) #6
  call void @llvm.lifetime.end.p0(i64 8, ptr %12) #6
  call void @llvm.lifetime.end.p0(i64 4, ptr %11) #6
  call void @llvm.lifetime.end.p0(i64 4, ptr %10) #6
  call void @llvm.lifetime.end.p0(i64 8, ptr %9) #6
  call void @llvm.lifetime.end.p0(i64 2, ptr %8) #6
  %124 = load i64, ptr %4, align 8
  ret i64 %124

125:                                              ; preds = %77
  unreachable
}