; Function Attrs: nounwind uwtable
define dso_local i64 @GetAttributeByName(ptr noundef %0, ptr noundef %1, ptr noundef %2) local_unnamed_addr #0 {
  %4 = alloca %struct.HeapTupleData, align 8
  call void @llvm.lifetime.start.p0(i64 24, ptr nonnull %4) #12
  %5 = icmp eq ptr %1, null
  br i1 %5, label %6, label %9

6:                                                ; preds = %3
  %7 = tail call zeroext i1 @errstart_cold(i32 noundef 21, ptr noundef null) #13
  tail call void @llvm.assume(i1 %7)
  %8 = tail call i32 (ptr, ...) @errmsg_internal(ptr noundef nonnull @.str.5) #12
  tail call void @errfinish(ptr noundef nonnull @.str.4, i32 noundef 1062, ptr noundef nonnull @__func__.GetAttributeByName) #12
  unreachable

9:                                                ; preds = %3
  %10 = icmp eq ptr %2, null
  br i1 %10, label %11, label %14

11:                                               ; preds = %9
  %12 = tail call zeroext i1 @errstart_cold(i32 noundef 21, ptr noundef null) #13
  tail call void @llvm.assume(i1 %12)
  %13 = tail call i32 (ptr, ...) @errmsg_internal(ptr noundef nonnull @.str.6) #12
  tail call void @errfinish(ptr noundef nonnull @.str.4, i32 noundef 1065, ptr noundef nonnull @__func__.GetAttributeByName) #12
  unreachable

14:                                               ; preds = %9
  %15 = icmp eq ptr %0, null
  br i1 %15, label %16, label %17

16:                                               ; preds = %14
  store i8 1, ptr %2, align 1
  br label %53

17:                                               ; preds = %14
  %18 = getelementptr i8, ptr %0, i64 8
  %.val = load i32, ptr %18, align 4
  %19 = getelementptr i8, ptr %0, i64 4
  %.val34 = load i32, ptr %19, align 4
  %20 = tail call ptr @lookup_rowtype_tupdesc(i32 noundef %.val, i32 noundef %.val34) #12
  %invariant.gep = getelementptr i8, ptr %20, i64 24
  %21 = load i32, ptr %20, align 8
  %22 = icmp sgt i32 %21, 0
  br i1 %22, label %.lr.ph, label %.thread40

23:                                               ; preds = %.lr.ph
  %indvars.iv.next = add nuw nsw i64 %indvars.iv, 1
  %24 = load i32, ptr %20, align 8
  %25 = sext i32 %24 to i64
  %26 = icmp slt i64 %indvars.iv.next, %25
  br i1 %26, label %.lr.ph, label %.thread40, !llvm.loop !13

.lr.ph:                                           ; preds = %17, %23
  %indvars.iv = phi i64 [ %indvars.iv.next, %23 ], [ 0, %17 ]
  %27 = phi i32 [ %24, %23 ], [ %21, %17 ]
  %28 = sext i32 %27 to i64
  %29 = shl nsw i64 %28, 4
  %gep = getelementptr i8, ptr %invariant.gep, i64 %29
  %30 = getelementptr inbounds nuw %struct.FormData_pg_attribute, ptr %gep, i64 %indvars.iv
  %31 = getelementptr inbounds nuw i8, ptr %30, i64 4
  %32 = tail call i32 @namestrcmp(ptr noundef nonnull %31, ptr noundef nonnull %1) #12
  %33 = icmp eq i32 %32, 0
  br i1 %33, label %34, label %23

34:                                               ; preds = %.lr.ph
  %35 = getelementptr inbounds nuw i8, ptr %30, i64 74
  %36 = load i16, ptr %35, align 2
  %37 = icmp eq i16 %36, 0
  br i1 %37, label %.thread40, label %40

.thread40:                                        ; preds = %23, %17, %34
  %38 = tail call zeroext i1 @errstart_cold(i32 noundef 21, ptr noundef null) #13
  tail call void @llvm.assume(i1 %38)
  %39 = tail call i32 (ptr, ...) @errmsg_internal(ptr noundef nonnull @.str.7, ptr noundef nonnull %1) #12
  tail call void @errfinish(ptr noundef nonnull @.str.4, i32 noundef 1091, ptr noundef nonnull @__func__.GetAttributeByName) #12
  unreachable

40:                                               ; preds = %34
  %41 = sext i16 %36 to i32
  %.val35 = load i32, ptr %0, align 4
  %42 = lshr i32 %.val35, 2
  store i32 %42, ptr %4, align 8
  %43 = getelementptr inbounds nuw i8, ptr %4, i64 4
  store i16 -1, ptr %43, align 4
  %44 = getelementptr inbounds nuw i8, ptr %4, i64 6
  store i16 -1, ptr %44, align 2
  %45 = getelementptr inbounds nuw i8, ptr %4, i64 8
  store i16 0, ptr %45, align 8
  %46 = getelementptr inbounds nuw i8, ptr %4, i64 12
  store i32 0, ptr %46, align 4
  %47 = getelementptr inbounds nuw i8, ptr %4, i64 16
  store ptr %0, ptr %47, align 8
  %48 = call fastcc i64 @heap_getattr(ptr noundef %4, i32 noundef %41, ptr noundef nonnull %20, ptr noundef %2)
  %49 = getelementptr inbounds nuw i8, ptr %20, i64 12
  %50 = load i32, ptr %49, align 4
  %51 = icmp sgt i32 %50, -1
  br i1 %51, label %52, label %53

52:                                               ; preds = %40
  call void @DecrTupleDescRefCount(ptr noundef nonnull %20) #12
  br label %53

53:                                               ; preds = %40, %52, %16
  %.0 = phi i64 [ 0, %16 ], [ %48, %52 ], [ %48, %40 ]
  call void @llvm.lifetime.end.p0(i64 24, ptr nonnull %4) #12
  ret i64 %.0
}